; Function Attrs: mustprogress uwtable
define hidden void @_ZN3smt12theory_array13push_scope_ehEv(ptr noundef nonnull align 8 dereferenceable(444) %0) unnamed_addr #4 align 2 {
  tail call void @_ZN3smt17theory_array_base13push_scope_ehEv(ptr noundef nonnull align 8 dereferenceable(249) %0)
  %2 = getelementptr inbounds nuw i8, ptr %0, i64 384
  %3 = getelementptr inbounds nuw i8, ptr %0, i64 400
  tail call void @_ZN6region10push_scopeEv(ptr noundef nonnull align 8 dereferenceable(40) %3)
  %4 = getelementptr inbounds nuw i8, ptr %0, i64 392
  %5 = load ptr, ptr %2, align 8, !tbaa !565
  %6 = icmp eq ptr %5, null
  br i1 %6, label %_ZNK6vectorIP5trailLb0EjE4sizeEv.exit.i, label %7

7:                                                ; preds = %1
  %8 = getelementptr inbounds i8, ptr %5, i64 -4
  %9 = load i32, ptr %8, align 4, !tbaa !560
  br label %_ZNK6vectorIP5trailLb0EjE4sizeEv.exit.i

_ZNK6vectorIP5trailLb0EjE4sizeEv.exit.i:          ; preds = %7, %1
  %.0.i.i = phi i32 [ %9, %7 ], [ 0, %1 ]
  %10 = load ptr, ptr %4, align 8, !tbaa !548
  %11 = icmp eq ptr %10, null
  br i1 %11, label %18, label %12

12:                                               ; preds = %_ZNK6vectorIP5trailLb0EjE4sizeEv.exit.i
  %13 = getelementptr inbounds i8, ptr %10, i64 -4
  %14 = load i32, ptr %13, align 4, !tbaa !560
  %15 = getelementptr inbounds i8, ptr %10, i64 -8
  %16 = load i32, ptr %15, align 4, !tbaa !560
  %17 = icmp eq i32 %14, %16
  br i1 %17, label %18, label %_ZN11trail_stack10push_scopeEv.exit

18:                                               ; preds = %12, %_ZNK6vectorIP5trailLb0EjE4sizeEv.exit.i
  tail call void @_ZN6vectorIjLb0EjE13expand_vectorEv(ptr noundef nonnull align 8 dereferenceable(8) %4)
  %.pre.i.i = load ptr, ptr %4, align 8, !tbaa !548
  %.phi.trans.insert.i.i = getelementptr inbounds i8, ptr %.pre.i.i, i64 -4
  %.pre2.i.i = load i32, ptr %.phi.trans.insert.i.i, align 4, !tbaa !560
  br label %_ZN11trail_stack10push_scopeEv.exit

_ZN11trail_stack10push_scopeEv.exit:              ; preds = %12, %18
  %19 = phi i32 [ %.pre2.i.i, %18 ], [ %14, %12 ]
  %20 = phi ptr [ %.pre.i.i, %18 ], [ %10, %12 ]
  %21 = getelementptr inbounds i8, ptr %20, i64 -4
  %22 = zext i32 %19 to i64
  %23 = getelementptr inbounds nuw i32, ptr %20, i64 %22
  store i32 %.0.i.i, ptr %23, align 4, !tbaa !560
  %24 = add i32 %19, 1
  store i32 %24, ptr %21, align 4, !tbaa !560
  ret void
}